target datalayout = "e-m:e-p270:32:32-p271:32:32-p272:64:64-i64:64-i128:128-f80:128-n8:16:32:64-S128"
target triple = "x86_64-pc-linux-gnu"

%"class.Luau::CstNode" = type { i32 }
%"struct.Luau::AstArray.0" = type { ptr, i64 }
%"struct.Luau::Position" = type { i32, i32 }
%"class.Luau::CstStatAssign" = type { %"class.Luau::CstNode", %"struct.Luau::AstArray.0", %"struct.Luau::Position", %"struct.Luau::AstArray.0" }

@_ZN4Luau7CstRttiINS_13CstStatAssignEE5valueE = linkonce_odr dso_local global i32 0, comdat, align 4

; Function Attrs: mustprogress nounwind uwtable
define linkonce_odr dso_local void @_ZN4Luau7CstNodeC2Ei(ptr noundef nonnull align 4 dereferenceable(4) %0, i32 noundef %1) unnamed_addr #3 comdat align 2 {
  %3 = alloca ptr, align 8
  %4 = alloca i32, align 4
  store ptr %0, ptr %3, align 8, !tbaa !18
  store i32 %1, ptr %4, align 4, !tbaa !4
  %5 = load ptr, ptr %3, align 8
  %6 = getelementptr inbounds nuw %"class.Luau::CstNode", ptr %5, i32 0, i32 0
  %7 = load i32, ptr %4, align 4, !tbaa !4
  store i32 %7, ptr %6, align 4, !tbaa !20
  ret void
}

; Function Attrs: mustprogress nounwind uwtable
define linkonce_odr dso_local noundef i32 @_ZN4Luau13CstStatAssign13CstClassIndexEv() #3 comdat align 2 {
  %1 = load i32, ptr @_ZN4Luau7CstRttiINS_13CstStatAssignEE5valueE, align 4, !tbaa !4
  ret i32 %1
}

; Function Attrs: mustprogress uwtable
define dso_local void @_ZN4Luau13CstStatAssignC2ENS_8AstArrayINS_8PositionEEES2_S3_(ptr noundef nonnull align 8 dereferenceable(48) %0, ptr %1, i64 %2, i64 %3, ptr %4, i64 %5) unnamed_addr #2 align 2 {
  %7 = alloca %"struct.Luau::AstArray.0", align 8
  %8 = alloca %"struct.Luau::Position", align 4
  %9 = alloca %"struct.Luau::AstArray.0", align 8
  %10 = alloca ptr, align 8
  %11 = getelementptr inbounds nuw { ptr, i64 }, ptr %7, i32 0, i32 0
  store ptr %1, ptr %11, align 8
  %12 = getelementptr inbounds nuw { ptr, i64 }, ptr %7, i32 0, i32 1
  store i64 %2, ptr %12, align 8
  store i64 %3, ptr %8, align 4
  %13 = getelementptr inbounds nuw { ptr, i64 }, ptr %9, i32 0, i32 0
  store ptr %4, ptr %13, align 8
  %14 = getelementptr inbounds nuw { ptr, i64 }, ptr %9, i32 0, i32 1
  store i64 %5, ptr %14, align 8
  store ptr %0, ptr %10, align 8, !tbaa !73
  %15 = load ptr, ptr %10, align 8
  %16 = call noundef i32 @_ZN4Luau13CstStatAssign13CstClassIndexEv()
  call void @_ZN4Luau7CstNodeC2Ei(ptr noundef nonnull align 4 dereferenceable(4) %15, i32 noundef %16)
  %17 = getelementptr inbounds nuw %"class.Luau::CstStatAssign", ptr %15, i32 0, i32 1
  call void @llvm.memcpy.p0.p0.i64(ptr align 8 %17, ptr align 8 %7, i64 16, i1 false), !tbaa.struct !32
  %18 = getelementptr inbounds nuw %"class.Luau::CstStatAssign", ptr %15, i32 0, i32 2
  call void @llvm.memcpy.p0.p0.i64(ptr align 8 %18, ptr align 4 %8, i64 8, i1 false), !tbaa.struct !37
  %19 = getelementptr inbounds nuw %"class.Luau::CstStatAssign", ptr %15, i32 0, i32 3
  call void @llvm.memcpy.p0.p0.i64(ptr align 8 %19, ptr align 8 %9, i64 16, i1 false), !tbaa.struct !32
  ret void
}