; Function Attrs: mustprogress nofree norecurse nosync nounwind willreturn memory(read, argmem: write, inaccessiblemem: none) uwtable
define dso_local void @_ZN4Luau13CstStatAssignC2ENS_8AstArrayINS_8PositionEEES2_S3_(ptr noundef nonnull writeonly align 8 captures(none) dereferenceable(48) initializes((0, 4), (8, 48)) %0, ptr %1, i64 %2, i64 %3, ptr %4, i64 %5) unnamed_addr #4 align 2 {
  %7 = load i32, ptr @_ZN4Luau7CstRttiINS_13CstStatAssignEE5valueE, align 4, !tbaa !4
  store i32 %7, ptr %0, align 8, !tbaa !8
  %8 = getelementptr inbounds nuw i8, ptr %0, i64 8
  store ptr %1, ptr %8, align 8, !tbaa !22
  %.sroa.23.0..sroa_idx = getelementptr inbounds nuw i8, ptr %0, i64 16
  store i64 %2, ptr %.sroa.23.0..sroa_idx, align 8, !tbaa !14
  %9 = getelementptr inbounds nuw i8, ptr %0, i64 24
  store i64 %3, ptr %9, align 8
  %10 = getelementptr inbounds nuw i8, ptr %0, i64 32
  store ptr %4, ptr %10, align 8, !tbaa !22
  %.sroa.2.0..sroa_idx = getelementptr inbounds nuw i8, ptr %0, i64 40
  store i64 %5, ptr %.sroa.2.0..sroa_idx, align 8, !tbaa !14
  ret void
}